target datalayout = "e-m:e-p270:32:32-p271:32:32-p272:64:64-i64:64-i128:128-f80:128-n8:16:32:64-S128"
target triple = "x86_64-pc-linux-gnu"

%struct.PutBitContext = type { i32, i32, ptr, ptr, ptr }

@.str.14 = private unnamed_addr constant [43 x i8] c"Internal error, put_bits buffer too small\0A\00", align 1

; Function Attrs: alwaysinline nounwind willreturn memory(none) uwtable
define internal i32 @av_bswap32(i32 noundef %0) #9 {
  %2 = alloca i32, align 4
  store i32 %0, ptr %2, align 4, !tbaa !13
  %3 = load i32, ptr %2, align 4, !tbaa !13
  %4 = shl i32 %3, 8
  %5 = and i32 %4, 65280
  %6 = load i32, ptr %2, align 4, !tbaa !13
  %7 = lshr i32 %6, 8
  %8 = and i32 %7, 255
  %9 = or i32 %5, %8
  %10 = shl i32 %9, 16
  %11 = load i32, ptr %2, align 4, !tbaa !13
  %12 = lshr i32 %11, 16
  %13 = shl i32 %12, 8
  %14 = and i32 %13, 65280
  %15 = load i32, ptr %2, align 4, !tbaa !13
  %16 = lshr i32 %15, 16
  %17 = lshr i32 %16, 8
  %18 = and i32 %17, 255
  %19 = or i32 %14, %18
  %20 = or i32 %10, %19
  ret i32 %20
}

; Function Attrs: nounwind uwtable
define internal void @put_bits32(ptr noundef %0, i32 noundef %1) #0 {
  %3 = alloca ptr, align 8
  %4 = alloca i32, align 4
  %5 = alloca i32, align 4
  %6 = alloca i32, align 4
  store ptr %0, ptr %3, align 8, !tbaa !90
  store i32 %1, ptr %4, align 4, !tbaa !13
  call void @llvm.lifetime.start.p0(i64 4, ptr %5) #11
  call void @llvm.lifetime.start.p0(i64 4, ptr %6) #11
  %7 = load ptr, ptr %3, align 8, !tbaa !90
  %8 = getelementptr inbounds nuw %struct.PutBitContext, ptr %7, i32 0, i32 0
  %9 = load i32, ptr %8, align 8, !tbaa !196
  store i32 %9, ptr %5, align 4, !tbaa !13
  %10 = load ptr, ptr %3, align 8, !tbaa !90
  %11 = getelementptr inbounds nuw %struct.PutBitContext, ptr %10, i32 0, i32 1
  %12 = load i32, ptr %11, align 4, !tbaa !181
  store i32 %12, ptr %6, align 4, !tbaa !13
  %13 = load i32, ptr %5, align 4, !tbaa !13
  %14 = zext i32 %13 to i64
  %15 = load i32, ptr %6, align 4, !tbaa !13
  %16 = zext i32 %15 to i64
  %17 = shl i64 %14, %16
  %18 = trunc i64 %17 to i32
  store i32 %18, ptr %5, align 4, !tbaa !13
  %19 = load i32, ptr %4, align 4, !tbaa !13
  %20 = load i32, ptr %6, align 4, !tbaa !13
  %21 = sub nsw i32 32, %20
  %22 = lshr i32 %19, %21
  %23 = load i32, ptr %5, align 4, !tbaa !13
  %24 = or i32 %23, %22
  store i32 %24, ptr %5, align 4, !tbaa !13
  %25 = load ptr, ptr %3, align 8, !tbaa !90
  %26 = getelementptr inbounds nuw %struct.PutBitContext, ptr %25, i32 0, i32 4
  %27 = load ptr, ptr %26, align 8, !tbaa !194
  %28 = load ptr, ptr %3, align 8, !tbaa !90
  %29 = getelementptr inbounds nuw %struct.PutBitContext, ptr %28, i32 0, i32 3
  %30 = load ptr, ptr %29, align 8, !tbaa !195
  %31 = ptrtoint ptr %27 to i64
  %32 = ptrtoint ptr %30 to i64
  %33 = sub i64 %31, %32
  %34 = icmp uge i64 %33, 4
  br i1 %34, label %35, label %45

35:                                               ; preds = %2
  %36 = load i32, ptr %5, align 4, !tbaa !13
  %37 = call i32 @av_bswap32(i32 noundef %36) #14
  %38 = load ptr, ptr %3, align 8, !tbaa !90
  %39 = getelementptr inbounds nuw %struct.PutBitContext, ptr %38, i32 0, i32 3
  %40 = load ptr, ptr %39, align 8, !tbaa !195
  store i32 %37, ptr %40, align 1, !tbaa !60
  %41 = load ptr, ptr %3, align 8, !tbaa !90
  %42 = getelementptr inbounds nuw %struct.PutBitContext, ptr %41, i32 0, i32 3
  %43 = load ptr, ptr %42, align 8, !tbaa !195
  %44 = getelementptr inbounds nuw i8, ptr %43, i64 4
  store ptr %44, ptr %42, align 8, !tbaa !195
  br label %46

45:                                               ; preds = %2
  call void (ptr, i32, ptr, ...) @av_log(ptr noundef null, i32 noundef 16, ptr noundef @.str.14)
  br label %46

46:                                               ; preds = %45, %35
  %47 = load i32, ptr %4, align 4, !tbaa !13
  store i32 %47, ptr %5, align 4, !tbaa !13
  %48 = load i32, ptr %5, align 4, !tbaa !13
  %49 = load ptr, ptr %3, align 8, !tbaa !90
  %50 = getelementptr inbounds nuw %struct.PutBitContext, ptr %49, i32 0, i32 0
  store i32 %48, ptr %50, align 8, !tbaa !196
  %51 = load i32, ptr %6, align 4, !tbaa !13
  %52 = load ptr, ptr %3, align 8, !tbaa !90
  %53 = getelementptr inbounds nuw %struct.PutBitContext, ptr %52, i32 0, i32 1
  store i32 %51, ptr %53, align 4, !tbaa !181
  call void @llvm.lifetime.end.p0(i64 4, ptr %6) #11
  call void @llvm.lifetime.end.p0(i64 4, ptr %5) #11
  ret void
}