; Function Attrs: nounwind uwtable
define internal fastcc void @put_bits32(ptr noundef nonnull captures(none) %0, i32 noundef %1) unnamed_addr #0 {
  %3 = getelementptr inbounds nuw i8, ptr %0, i64 4
  %4 = load i32, ptr %3, align 4, !tbaa !116
  %5 = getelementptr inbounds nuw i8, ptr %0, i64 24
  %6 = load ptr, ptr %5, align 8, !tbaa !108
  %7 = getelementptr inbounds nuw i8, ptr %0, i64 16
  %8 = load ptr, ptr %7, align 8, !tbaa !109
  %9 = ptrtoint ptr %6 to i64
  %10 = ptrtoint ptr %8 to i64
  %11 = sub i64 %9, %10
  %12 = icmp ugt i64 %11, 3
  br i1 %12, label %13, label %25

13:                                               ; preds = %2
  %14 = load i32, ptr %0, align 8, !tbaa !115
  %15 = zext i32 %14 to i64
  %16 = zext nneg i32 %4 to i64
  %17 = shl i64 %15, %16
  %18 = trunc i64 %17 to i32
  %19 = sub nsw i32 32, %4
  %20 = lshr i32 %1, %19
  %21 = or i32 %20, %18
  %22 = tail call i32 @llvm.bswap.i32(i32 %21)
  store i32 %22, ptr %8, align 1, !tbaa !51
  %23 = load ptr, ptr %7, align 8, !tbaa !109
  %24 = getelementptr inbounds nuw i8, ptr %23, i64 4
  store ptr %24, ptr %7, align 8, !tbaa !109
  br label %26

25:                                               ; preds = %2
  tail call void (ptr, i32, ptr, ...) @av_log(ptr noundef null, i32 noundef 16, ptr noundef nonnull @.str.14) #12
  br label %26

26:                                               ; preds = %25, %13
  store i32 %1, ptr %0, align 8, !tbaa !115
  store i32 %4, ptr %3, align 4, !tbaa !116
  ret void
}